target datalayout = "e-m:e-p270:32:32-p271:32:32-p272:64:64-i64:64-i128:128-f80:128-n8:16:32:64-S128"
target triple = "x86_64-pc-linux-gnu"

%"class.gmx::LoggerOwner" = type { %"class.std::unique_ptr.125", ptr }
%"class.std::unique_ptr.125" = type { %"struct.std::__uniq_ptr_data.126" }
%"struct.std::__uniq_ptr_data.126" = type { %"class.std::__uniq_ptr_impl.127" }
%"class.std::__uniq_ptr_impl.127" = type { %"class.std::tuple.128" }
%"class.std::tuple.128" = type { %"struct.std::_Tuple_impl.129" }
%"struct.std::_Tuple_impl.129" = type { %"struct.std::_Head_base.132" }
%"struct.std::_Head_base.132" = type { ptr }
%"class.gmx::LoggerBuilder" = type { %"class.std::unique_ptr.1235" }
%"class.std::unique_ptr.1235" = type { %"struct.std::__uniq_ptr_data.1236" }
%"struct.std::__uniq_ptr_data.1236" = type { %"class.std::__uniq_ptr_impl.1237" }
%"class.std::__uniq_ptr_impl.1237" = type { %"class.std::tuple.1238" }
%"class.std::tuple.1238" = type { %"struct.std::_Tuple_impl.1239" }
%"struct.std::_Tuple_impl.1239" = type { %"struct.std::_Head_base.1242" }
%"struct.std::_Head_base.1242" = type { ptr }

; Function Attrs: mustprogress uwtable
define internal void @_ZN3gmxL11buildLoggerEP8_IO_FILEb(ptr dead_on_unwind noalias writable sret(%"class.gmx::LoggerOwner") align 8 %0, ptr noundef %1, i1 noundef zeroext %2) #3 personality ptr @__gxx_personality_v0 {
  %4 = alloca ptr, align 8
  %5 = alloca ptr, align 8
  %6 = alloca i8, align 1
  %7 = alloca %"class.gmx::LoggerBuilder", align 8
  %8 = alloca ptr, align 8
  %9 = alloca i32, align 4
  store ptr %0, ptr %4, align 8
  store ptr %1, ptr %5, align 8, !tbaa !265
  %10 = zext i1 %2 to i8
  store i8 %10, ptr %6, align 1, !tbaa !99
  call void @llvm.lifetime.start.p0(i64 8, ptr %7) #5
  call void @_ZN3gmx13LoggerBuilderC1Ev(ptr noundef nonnull align 8 dereferenceable(8) %7)
  %11 = load ptr, ptr %5, align 8, !tbaa !265
  %12 = icmp ne ptr %11, null
  br i1 %12, label %13, label %20

13:                                               ; preds = %3
  %14 = load ptr, ptr %5, align 8, !tbaa !265
  invoke void @_ZN3gmx13LoggerBuilder13addTargetFileENS_8MDLogger8LogLevelEP8_IO_FILE(ptr noundef nonnull align 8 dereferenceable(8) %7, i32 noundef 2, ptr noundef %14)
          to label %15 unwind label %16

15:                                               ; preds = %13
  br label %20

16:                                               ; preds = %27, %25, %23, %13
  %17 = landingpad { ptr, i32 }
          cleanup
  %18 = extractvalue { ptr, i32 } %17, 0
  store ptr %18, ptr %8, align 8
  %19 = extractvalue { ptr, i32 } %17, 1
  store i32 %19, ptr %9, align 4
  call void @_ZN3gmx13LoggerBuilderD1Ev(ptr noundef nonnull align 8 dereferenceable(8) %7) #5
  call void @llvm.lifetime.end.p0(i64 8, ptr %7) #5
  br label %29

20:                                               ; preds = %15, %3
  %21 = load i8, ptr %6, align 1, !tbaa !99, !range !133, !noundef !134
  %22 = trunc i8 %21 to i1
  br i1 %22, label %23, label %27

23:                                               ; preds = %20
  %24 = invoke noundef nonnull align 8 dereferenceable(16) ptr @_ZN3gmx14TextOutputFile13standardErrorEv()
          to label %25 unwind label %16

25:                                               ; preds = %23
  invoke void @_ZN3gmx13LoggerBuilder15addTargetStreamENS_8MDLogger8LogLevelEPNS_16TextOutputStreamE(ptr noundef nonnull align 8 dereferenceable(8) %7, i32 noundef 1, ptr noundef %24)
          to label %26 unwind label %16

26:                                               ; preds = %25
  br label %27

27:                                               ; preds = %26, %20
  invoke void @_ZN3gmx13LoggerBuilder5buildEv(ptr dead_on_unwind writable sret(%"class.gmx::LoggerOwner") align 8 %0, ptr noundef nonnull align 8 dereferenceable(8) %7)
          to label %28 unwind label %16

28:                                               ; preds = %27
  call void @_ZN3gmx13LoggerBuilderD1Ev(ptr noundef nonnull align 8 dereferenceable(8) %7) #5
  call void @llvm.lifetime.end.p0(i64 8, ptr %7) #5
  ret void

29:                                               ; preds = %16
  %30 = load ptr, ptr %8, align 8
  %31 = load i32, ptr %9, align 4
  %32 = insertvalue { ptr, i32 } poison, ptr %30, 0
  %33 = insertvalue { ptr, i32 } %32, i32 %31, 1
  resume { ptr, i32 } %33
}