; Function Attrs: mustprogress uwtable
define internal fastcc void @_ZN3gmxL11buildLoggerEP8_IO_FILEb(ptr dead_on_unwind noalias nonnull writable align 8 %0, ptr noundef %1, i1 noundef zeroext %2) unnamed_addr #10 personality ptr @__gxx_personality_v0 {
  %4 = alloca %"class.gmx::LoggerBuilder", align 8
  call void @llvm.lifetime.start.p0(i64 8, ptr nonnull %4) #34
  call void @_ZN3gmx13LoggerBuilderC1Ev(ptr noundef nonnull align 8 dereferenceable(8) %4)
  %.not = icmp eq ptr %1, null
  br i1 %.not, label %8, label %5

5:                                                ; preds = %3
  invoke void @_ZN3gmx13LoggerBuilder13addTargetFileENS_8MDLogger8LogLevelEP8_IO_FILE(ptr noundef nonnull align 8 dereferenceable(8) %4, i32 noundef 2, ptr noundef nonnull %1)
          to label %8 unwind label %6

6:                                                ; preds = %12, %11, %9, %5
  %7 = landingpad { ptr, i32 }
          cleanup
  call void @_ZN3gmx13LoggerBuilderD1Ev(ptr noundef nonnull align 8 dereferenceable(8) %4) #34
  call void @llvm.lifetime.end.p0(i64 8, ptr nonnull %4) #34
  resume { ptr, i32 } %7

8:                                                ; preds = %5, %3
  br i1 %2, label %9, label %12

9:                                                ; preds = %8
  %10 = invoke noundef nonnull align 8 dereferenceable(16) ptr @_ZN3gmx14TextOutputFile13standardErrorEv()
          to label %11 unwind label %6

11:                                               ; preds = %9
  invoke void @_ZN3gmx13LoggerBuilder15addTargetStreamENS_8MDLogger8LogLevelEPNS_16TextOutputStreamE(ptr noundef nonnull align 8 dereferenceable(8) %4, i32 noundef 1, ptr noundef nonnull %10)
          to label %12 unwind label %6

12:                                               ; preds = %11, %8
  invoke void @_ZN3gmx13LoggerBuilder5buildEv(ptr dead_on_unwind nonnull writable sret(%"class.gmx::LoggerOwner") align 8 %0, ptr noundef nonnull align 8 dereferenceable(8) %4)
          to label %13 unwind label %6

13:                                               ; preds = %12
  call void @_ZN3gmx13LoggerBuilderD1Ev(ptr noundef nonnull align 8 dereferenceable(8) %4) #34
  call void @llvm.lifetime.end.p0(i64 8, ptr nonnull %4) #34
  ret void
}